; Function Attrs: mustprogress uwtable
define internal void @"_ZNSt17_Function_handlerIFvvEZ4mainE3$_0E9_M_invokeERKSt9_Any_data"(ptr nocapture noundef nonnull readonly align 8 dereferenceable(16) %__functor) #6 align 2 {
entry:
  %__functor.val = load ptr, ptr %__functor, align 8
  %call.val = load ptr, ptr %__functor.val, align 8
  %0 = getelementptr i8, ptr %call.val, i64 64
  %call.val.val = load ptr, ptr %0, align 8
  %call.val.val.val = load i32, ptr %call.val.val, align 4
  %call2.i.i.i = tail call noundef nonnull align 8 dereferenceable(8) ptr @_ZStlsISt11char_traitsIcEERSt13basic_ostreamIcT_ES5_PKc(ptr noundef nonnull align 8 dereferenceable(8) @_ZSt4cout, ptr noundef nonnull @.str.59)
  %call3.i.i.i = tail call noundef nonnull align 8 dereferenceable(8) ptr @_ZNSolsEi(ptr noundef nonnull align 8 dereferenceable(8) %call2.i.i.i, i32 noundef %call.val.val.val)
  %call4.i.i.i = tail call noundef nonnull align 8 dereferenceable(8) ptr @_ZNSolsEPFRSoS_E(ptr noundef nonnull align 8 dereferenceable(8) %call3.i.i.i, ptr noundef nonnull @_ZSt4endlIcSt11char_traitsIcEERSt13basic_ostreamIT_T0_ES6_)
  ret void
}